; Function Attrs: mustprogress uwtable
define i32 @uloc_getKeywordValue_77(ptr noundef %0, ptr noundef %1, ptr noundef %2, i32 noundef %3, ptr noundef %4) local_unnamed_addr #1 personality ptr @__gxx_personality_v0 {
  %6 = alloca %"class.icu_77::CheckedArrayByteSink", align 8
  %7 = load i32, ptr %4, align 4, !tbaa !13
  %8 = icmp slt i32 %7, 1
  br i1 %8, label %9, label %"_ZN6icu_7712ByteSinkUtil28viaByteSinkToTerminatedCharsIZ23uloc_getKeywordValue_77E3$_0vEEiPciOT_R10UErrorCode.exit"

9:                                                ; preds = %5
  %10 = icmp eq ptr %1, null
  br i1 %10, label %14, label %11

11:                                               ; preds = %9
  %12 = load i8, ptr %1, align 1, !tbaa !20
  %13 = icmp eq i8 %12, 0
  br i1 %13, label %14, label %15

14:                                               ; preds = %11, %9
  store i32 1, ptr %4, align 4, !tbaa !13
  br label %"_ZN6icu_7712ByteSinkUtil28viaByteSinkToTerminatedCharsIZ23uloc_getKeywordValue_77E3$_0vEEiPciOT_R10UErrorCode.exit"

15:                                               ; preds = %11
  call void @llvm.lifetime.start.p0(i64 32, ptr nonnull %6) #20
  call void @_ZN6icu_7720CheckedArrayByteSinkC1EPci(ptr noundef nonnull align 8 dereferenceable(29) %6, ptr noundef %2, i32 noundef %3)
  %16 = call noundef i64 @strlen(ptr noundef nonnull dereferenceable(1) %1) #20
  invoke void @_Z26ulocimp_getKeywordValue_77PKcSt17basic_string_viewIcSt11char_traitsIcEERN6icu_778ByteSinkER10UErrorCode(ptr noundef %0, i64 %16, ptr nonnull %1, ptr noundef nonnull align 8 dereferenceable(8) %6, ptr noundef nonnull align 4 dereferenceable(4) %4)
          to label %"_ZZ23uloc_getKeywordValue_77ENK3$_0clERN6icu_778ByteSinkER10UErrorCode.exit.i" unwind label %19

"_ZZ23uloc_getKeywordValue_77ENK3$_0clERN6icu_778ByteSinkER10UErrorCode.exit.i": ; preds = %15
  %17 = load i32, ptr %4, align 4, !tbaa !13
  %18 = icmp slt i32 %17, 1
  br i1 %18, label %21, label %31

19:                                               ; preds = %15
  %20 = landingpad { ptr, i32 }
          cleanup
  br label %32

21:                                               ; preds = %"_ZZ23uloc_getKeywordValue_77ENK3$_0clERN6icu_778ByteSinkER10UErrorCode.exit.i"
  %22 = getelementptr inbounds nuw i8, ptr %6, i64 24
  %23 = load i32, ptr %22, align 8, !tbaa !35
  %24 = getelementptr inbounds nuw i8, ptr %6, i64 28
  %25 = load i8, ptr %24, align 4, !tbaa !38
  %.not17.i = icmp eq i8 %25, 0
  br i1 %.not17.i, label %29, label %26

26:                                               ; preds = %21
  store i32 15, ptr %4, align 4, !tbaa !13
  br label %31

27:                                               ; preds = %29
  %28 = landingpad { ptr, i32 }
          cleanup
  br label %32

29:                                               ; preds = %21
  %30 = invoke i32 @u_terminateChars_77(ptr noundef %2, i32 noundef %3, i32 noundef %23, ptr noundef nonnull align 4 dereferenceable(4) %4)
          to label %31 unwind label %27

31:                                               ; preds = %29, %26, %"_ZZ23uloc_getKeywordValue_77ENK3$_0clERN6icu_778ByteSinkER10UErrorCode.exit.i"
  %.1.i = phi i32 [ 0, %"_ZZ23uloc_getKeywordValue_77ENK3$_0clERN6icu_778ByteSinkER10UErrorCode.exit.i" ], [ %23, %26 ], [ %30, %29 ]
  call void @_ZN6icu_7720CheckedArrayByteSinkD1Ev(ptr noundef nonnull align 8 dereferenceable(29) %6) #20
  call void @llvm.lifetime.end.p0(i64 32, ptr nonnull %6) #20
  br label %"_ZN6icu_7712ByteSinkUtil28viaByteSinkToTerminatedCharsIZ23uloc_getKeywordValue_77E3$_0vEEiPciOT_R10UErrorCode.exit"

32:                                               ; preds = %27, %19
  %.pn.i = phi { ptr, i32 } [ %28, %27 ], [ %20, %19 ]
  call void @_ZN6icu_7720CheckedArrayByteSinkD1Ev(ptr noundef nonnull align 8 dereferenceable(29) %6) #20
  call void @llvm.lifetime.end.p0(i64 32, ptr nonnull %6) #20
  resume { ptr, i32 } %.pn.i

"_ZN6icu_7712ByteSinkUtil28viaByteSinkToTerminatedCharsIZ23uloc_getKeywordValue_77E3$_0vEEiPciOT_R10UErrorCode.exit": ; preds = %31, %5, %14
  %.0 = phi i32 [ 0, %14 ], [ 0, %5 ], [ %.1.i, %31 ]
  ret i32 %.0
}